---
triple:          'arm64-apple-darwin'
binary-path:     '/Users/villo/Desktop/OpenSource/Tryingnew/TryingNew/lvaluervalue'
relocations:
  - { offsetInCU: 0x2DED, offset: 0x2DED, size: 0x8, addend: 0x0, symName: __ZNSt3__124__put_character_sequenceB8ue170006IcNS_11char_traitsIcEEEERNS_13basic_ostreamIT_T0_EES7_PKS4_m, symObjAddr: 0x8BC, symBinAddr: 0x10000330C, symSize: 0x1F4 }
  - { offsetInCU: 0x6C48, offset: 0x6C48, size: 0x8, addend: 0x0, symName: __ZNSt3__1lsB8ue170006INS_11char_traitsIcEEEERNS_13basic_ostreamIcT_EES6_PKc, symObjAddr: 0x2CC, symBinAddr: 0x100002D1C, symSize: 0x48 }
  - { offsetInCU: 0x6CAA, offset: 0x6CAA, size: 0x8, addend: 0x0, symName: __ZNSt3__14endlB8ue170006IcNS_11char_traitsIcEEEERNS_13basic_ostreamIT_T0_EES7_, symObjAddr: 0x6B0, symBinAddr: 0x100003100, symSize: 0x58 }
  - { offsetInCU: 0x6CEA, offset: 0x6CEA, size: 0x8, addend: 0x0, symName: __ZNSt3__19use_facetB8ue170006INS_5ctypeIcEEEERKT_RKNS_6localeE, symObjAddr: 0x794, symBinAddr: 0x1000031E4, symSize: 0x2C }
  - { offsetInCU: 0x71B7, offset: 0x71B7, size: 0x8, addend: 0x0, symName: __ZNSt3__116__pad_and_outputB8ue170006IcNS_11char_traitsIcEEEENS_19ostreambuf_iteratorIT_T0_EES6_PKS4_S8_S8_RNS_8ios_baseES4_, symObjAddr: 0xB14, symBinAddr: 0x100003564, symSize: 0x248 }
  - { offsetInCU: 0x7286, offset: 0x7286, size: 0x8, addend: 0x0, symName: __ZNSt3__112__to_addressB8ue170006IKcEEPT_S3_, symObjAddr: 0x1084, symBinAddr: 0x100003AD4, symSize: 0x14 }
  - { offsetInCU: 0x72BB, offset: 0x72BB, size: 0x8, addend: 0x0, symName: __ZNSt3__130__libcpp_is_constant_evaluatedB8ue170006Ev, symObjAddr: 0x11B0, symBinAddr: 0x100003C00, symSize: 0xC }
  - { offsetInCU: 0x730B, offset: 0x730B, size: 0x8, addend: 0x0, symName: __ZNSt3__118__constexpr_strlenB8ue170006EPKc, symObjAddr: 0x1310, symBinAddr: 0x100003D60, symSize: 0x24 }
  - { offsetInCU: 0x7337, offset: 0x7337, size: 0x8, addend: 0x0, symName: __ZNSt3__112__to_addressB8ue170006I1AEEPT_S3_, symObjAddr: 0x17E4, symBinAddr: 0x100004234, symSize: 0x14 }
  - { offsetInCU: 0x736C, offset: 0x736C, size: 0x8, addend: 0x0, symName: __ZNSt3__119__libcpp_deallocateB8ue170006EPvmm, symObjAddr: 0x1900, symBinAddr: 0x100004350, symSize: 0x30 }
  - { offsetInCU: 0x73B4, offset: 0x73B4, size: 0x8, addend: 0x0, symName: __ZNSt3__127__do_deallocate_handle_sizeB8ue170006IJEEEvPvmDpT_, symObjAddr: 0x1930, symBinAddr: 0x100004380, symSize: 0x28 }
  - { offsetInCU: 0x73F2, offset: 0x73F2, size: 0x8, addend: 0x0, symName: __ZNSt3__124__libcpp_operator_deleteB8ue170006IJPvEEEvDpT_, symObjAddr: 0x1958, symBinAddr: 0x1000043A8, symSize: 0x24 }
  - { offsetInCU: 0x7427, offset: 0x7427, size: 0x8, addend: 0x0, symName: __ZNSt3__13maxB8ue170006ImEERKT_S3_S3_, symObjAddr: 0x209C, symBinAddr: 0x100004AEC, symSize: 0x2C }
  - { offsetInCU: 0x746A, offset: 0x746A, size: 0x8, addend: 0x0, symName: __ZNSt3__13minB8ue170006ImEERKT_S3_S3_, symObjAddr: 0x20C8, symBinAddr: 0x100004B18, symSize: 0x2C }
  - { offsetInCU: 0x76AE, offset: 0x76AE, size: 0x8, addend: 0x0, symName: __ZNSt3__13minB8ue170006ImNS_6__lessIvvEEEERKT_S5_S5_T0_, symObjAddr: 0x2154, symBinAddr: 0x100004BA4, symSize: 0x54 }
  - { offsetInCU: 0x774D, offset: 0x774D, size: 0x8, addend: 0x0, symName: __ZNSt3__120__throw_length_errorB8ue170006EPKc, symObjAddr: 0x2230, symBinAddr: 0x100004C80, symSize: 0x64 }
  - { offsetInCU: 0x7777, offset: 0x7777, size: 0x8, addend: 0x0, symName: __ZNSt3__13maxB8ue170006ImNS_6__lessIvvEEEERKT_S5_S5_T0_, symObjAddr: 0x2314, symBinAddr: 0x100004D64, symSize: 0x54 }
  - { offsetInCU: 0x77D1, offset: 0x77D1, size: 0x8, addend: 0x0, symName: __ZNSt3__119__allocate_at_leastB8ue170006INS_9allocatorI1AEEEENS_19__allocation_resultINS_16allocator_traitsIT_E7pointerEEERS6_m, symObjAddr: 0x2478, symBinAddr: 0x100004EC8, symSize: 0x40 }
  - { offsetInCU: 0x7814, offset: 0x7814, size: 0x8, addend: 0x0, symName: __ZNSt3__117__libcpp_allocateB8ue170006Emm, symObjAddr: 0x2628, symBinAddr: 0x100005078, symSize: 0x28 }
  - { offsetInCU: 0x7851, offset: 0x7851, size: 0x8, addend: 0x0, symName: __ZNSt3__121__libcpp_operator_newB8ue170006IJmEEEPvDpT_, symObjAddr: 0x2650, symBinAddr: 0x1000050A0, symSize: 0x24 }
  - { offsetInCU: 0x788A, offset: 0x788A, size: 0x8, addend: 0x0, symName: __ZNSt3__142__uninitialized_allocator_move_if_noexceptB8ue170006INS_9allocatorI1AEENS_16reverse_iteratorIPS2_EES6_S6_EET2_RT_T0_T1_S7_, symObjAddr: 0x26D8, symBinAddr: 0x100005128, symSize: 0x134 }
  - { offsetInCU: 0x792A, offset: 0x792A, size: 0x8, addend: 0x0, symName: __ZNSt3__14swapB8ue170006IP1AEEvRT_S4_, symObjAddr: 0x2858, symBinAddr: 0x1000052A8, symSize: 0x3C }
  - { offsetInCU: 0x797B, offset: 0x797B, size: 0x8, addend: 0x0, symName: __ZNSt3__122__make_exception_guardB8ue170006INS_29_AllocatorDestroyRangeReverseINS_9allocatorI1AEENS_16reverse_iteratorIPS3_EEEEEENS_28__exception_guard_exceptionsIT_EESA_, symObjAddr: 0x2940, symBinAddr: 0x100005390, symSize: 0x4C }
  - { offsetInCU: 0x79B1, offset: 0x79B1, size: 0x8, addend: 0x0, symName: __ZNSt3__1neB8ue170006IP1AS2_EEbRKNS_16reverse_iteratorIT_EERKNS3_IT0_EE, symObjAddr: 0x29D0, symBinAddr: 0x100005420, symSize: 0x48 }
  - { offsetInCU: 0x79FD, offset: 0x79FD, size: 0x8, addend: 0x0, symName: __ZNSt3__112__to_addressB8ue170006INS_16reverse_iteratorIP1AEEvEEu7__decayIDTclsr19__to_address_helperIT_EE6__callclsr3stdE7declvalIRKS5_EEEEES7_, symObjAddr: 0x2A4C, symBinAddr: 0x10000549C, symSize: 0x24 }
  - { offsetInCU: 0x7A33, offset: 0x7A33, size: 0x8, addend: 0x0, symName: __ZNSt3__14copyB8ue170006IPiS1_EET0_T_S3_S2_, symObjAddr: 0x2CC8, symBinAddr: 0x100005718, symSize: 0x40 }
  - { offsetInCU: 0x7A8D, offset: 0x7A8D, size: 0x8, addend: 0x0, symName: __ZNSt3__16__copyB8ue170006INS_17_ClassicAlgPolicyEPiS2_S2_EENS_4pairIT0_T2_EES4_T1_S5_, symObjAddr: 0x2D08, symBinAddr: 0x100005758, symSize: 0x44 }
  - { offsetInCU: 0x7AF9, offset: 0x7AF9, size: 0x8, addend: 0x0, symName: __ZNSt3__123__dispatch_copy_or_moveB8ue170006INS_17_ClassicAlgPolicyENS_11__copy_loopIS1_EENS_14__copy_trivialEPiS5_S5_EENS_4pairIT2_T4_EES7_T3_S8_, symObjAddr: 0x2D4C, symBinAddr: 0x10000579C, symSize: 0x44 }
  - { offsetInCU: 0x7B77, offset: 0x7B77, size: 0x8, addend: 0x0, symName: __ZNSt3__121__unwrap_and_dispatchB8ue170006INS_10__overloadINS_11__copy_loopINS_17_ClassicAlgPolicyEEENS_14__copy_trivialEEEPiS7_S7_Li0EEENS_4pairIT0_T2_EES9_T1_SA_, symObjAddr: 0x2D90, symBinAddr: 0x1000057E0, symSize: 0xB4 }
  - { offsetInCU: 0x7C05, offset: 0x7C05, size: 0x8, addend: 0x0, symName: __ZNSt3__114__unwrap_rangeB8ue170006IPiS1_EENS_4pairIT0_S3_EET_S5_, symObjAddr: 0x2E44, symBinAddr: 0x100005894, symSize: 0x60 }
  - { offsetInCU: 0x7D44, offset: 0x7D44, size: 0x8, addend: 0x0, symName: __ZNSt3__113__unwrap_iterB8ue170006IPiNS_18__unwrap_iter_implIS1_Lb1EEELi0EEEDTclsrT0_8__unwrapclsr3stdE7declvalIT_EEEES5_, symObjAddr: 0x2EEC, symBinAddr: 0x10000593C, symSize: 0x24 }
  - { offsetInCU: 0x7D88, offset: 0x7D88, size: 0x8, addend: 0x0, symName: __ZNSt3__19make_pairB8ue170006IPiS1_EENS_4pairINS_18__unwrap_ref_decayIT_E4typeENS3_IT0_E4typeEEEOS4_OS7_, symObjAddr: 0x2F10, symBinAddr: 0x100005960, symSize: 0x38 }
  - { offsetInCU: 0x7DD7, offset: 0x7DD7, size: 0x8, addend: 0x0, symName: __ZNSt3__114__rewrap_rangeB8ue170006IPiS1_EET_S2_T0_, symObjAddr: 0x2F48, symBinAddr: 0x100005998, symSize: 0x2C }
  - { offsetInCU: 0x7E23, offset: 0x7E23, size: 0x8, addend: 0x0, symName: __ZNSt3__113__rewrap_iterB8ue170006IPiS1_NS_18__unwrap_iter_implIS1_Lb1EEEEET_S4_T0_, symObjAddr: 0x2F74, symBinAddr: 0x1000059C4, symSize: 0x50 }
  - { offsetInCU: 0x7E78, offset: 0x7E78, size: 0x8, addend: 0x0, symName: __ZNSt3__119__copy_trivial_implB8ue170006IiiEENS_4pairIPT_PT0_EES3_S3_S5_, symObjAddr: 0x2FC4, symBinAddr: 0x100005A14, symSize: 0x80 }
  - { offsetInCU: 0x7EE0, offset: 0x7EE0, size: 0x8, addend: 0x0, symName: __ZNSt3__119__constexpr_memmoveB8ue170006IiiLi0EEEPT_S2_PT0_NS_15__element_countE, symObjAddr: 0x3044, symBinAddr: 0x100005A94, symSize: 0xA0 }
  - { offsetInCU: 0x7F4E, offset: 0x7F4E, size: 0x8, addend: 0x0, symName: __ZNSt3__19make_pairB8ue170006IRPiS1_EENS_4pairINS_18__unwrap_ref_decayIT_E4typeENS4_IT0_E4typeEEEOS5_OS8_, symObjAddr: 0x30E4, symBinAddr: 0x100005B34, symSize: 0x38 }
  - { offsetInCU: 0x7FF0, offset: 0x7FF0, size: 0x8, addend: 0x0, symName: __ZNSt3__112__to_addressB8ue170006IiEEPT_S2_, symObjAddr: 0x31B0, symBinAddr: 0x100005C00, symSize: 0x14 }
  - { offsetInCU: 0x804E, offset: 0x804E, size: 0x8, addend: 0x0, symName: __ZNSt3__119__allocator_destroyB8ue170006INS_9allocatorI1AEENS_16reverse_iteratorINS4_IPS2_EEEES7_EEvRT_T0_T1_, symObjAddr: 0x3380, symBinAddr: 0x100005DD0, symSize: 0x70 }
  - { offsetInCU: 0x80B3, offset: 0x80B3, size: 0x8, addend: 0x0, symName: __ZNSt3__1neB8ue170006INS_16reverse_iteratorIP1AEES4_EEbRKNS1_IT_EERKNS1_IT0_EE, symObjAddr: 0x342C, symBinAddr: 0x100005E7C, symSize: 0x60 }
  - { offsetInCU: 0x80FF, offset: 0x80FF, size: 0x8, addend: 0x0, symName: __ZNSt3__112__to_addressB8ue170006INS_16reverse_iteratorINS1_IP1AEEEEvEEu7__decayIDTclsr19__to_address_helperIT_EE6__callclsr3stdE7declvalIRKS6_EEEEES8_, symObjAddr: 0x348C, symBinAddr: 0x100005EDC, symSize: 0x24 }
  - { offsetInCU: 0x815E, offset: 0x815E, size: 0x8, addend: 0x0, symName: __ZNSt3__1miB8ue170006IPK1APS1_EENS_11__wrap_iterIT_E15difference_typeERKS7_RKNS5_IT0_EE, symObjAddr: 0x38BC, symBinAddr: 0x10000630C, symSize: 0x48 }
  - { offsetInCU: 0x81AA, offset: 0x81AA, size: 0x8, addend: 0x0, symName: __ZNSt3__113move_backwardB8ue170006IP1AS2_EET0_T_S4_S3_, symObjAddr: 0x3EF0, symBinAddr: 0x100006940, symSize: 0x40 }
  - { offsetInCU: 0x8204, offset: 0x8204, size: 0x8, addend: 0x0, symName: __ZNSt3__115__move_backwardB8ue170006INS_17_ClassicAlgPolicyEP1AS3_S3_EENS_4pairIT0_T2_EES5_T1_S6_, symObjAddr: 0x3F30, symBinAddr: 0x100006980, symSize: 0x44 }
  - { offsetInCU: 0x8270, offset: 0x8270, size: 0x8, addend: 0x0, symName: __ZNSt3__123__dispatch_copy_or_moveB8ue170006INS_17_ClassicAlgPolicyENS_20__move_backward_loopIS1_EENS_23__move_backward_trivialEP1AS6_S6_EENS_4pairIT2_T4_EES8_T3_S9_, symObjAddr: 0x3F74, symBinAddr: 0x1000069C4, symSize: 0x44 }
  - { offsetInCU: 0x82EE, offset: 0x82EE, size: 0x8, addend: 0x0, symName: __ZNSt3__121__unwrap_and_dispatchB8ue170006INS_10__overloadINS_20__move_backward_loopINS_17_ClassicAlgPolicyEEENS_23__move_backward_trivialEEEP1AS8_S8_Li0EEENS_4pairIT0_T2_EESA_T1_SB_, symObjAddr: 0x3FB8, symBinAddr: 0x100006A08, symSize: 0xB4 }
  - { offsetInCU: 0x837C, offset: 0x837C, size: 0x8, addend: 0x0, symName: __ZNSt3__114__unwrap_rangeB8ue170006IP1AS2_EENS_4pairIT0_S4_EET_S6_, symObjAddr: 0x406C, symBinAddr: 0x100006ABC, symSize: 0x60 }
  - { offsetInCU: 0x84D0, offset: 0x84D0, size: 0x8, addend: 0x0, symName: __ZNSt3__113__unwrap_iterB8ue170006IP1ANS_18__unwrap_iter_implIS2_Lb1EEELi0EEEDTclsrT0_8__unwrapclsr3stdE7declvalIT_EEEES6_, symObjAddr: 0x4170, symBinAddr: 0x100006BC0, symSize: 0x24 }
  - { offsetInCU: 0x8514, offset: 0x8514, size: 0x8, addend: 0x0, symName: __ZNSt3__19make_pairB8ue170006IP1AS2_EENS_4pairINS_18__unwrap_ref_decayIT_E4typeENS4_IT0_E4typeEEEOS5_OS8_, symObjAddr: 0x4194, symBinAddr: 0x100006BE4, symSize: 0x38 }
  - { offsetInCU: 0x8563, offset: 0x8563, size: 0x8, addend: 0x0, symName: __ZNSt3__114__rewrap_rangeB8ue170006IP1AS2_EET_S3_T0_, symObjAddr: 0x41CC, symBinAddr: 0x100006C1C, symSize: 0x2C }
  - { offsetInCU: 0x85AF, offset: 0x85AF, size: 0x8, addend: 0x0, symName: __ZNSt3__113__rewrap_iterB8ue170006IP1AS2_NS_18__unwrap_iter_implIS2_Lb1EEEEET_S5_T0_, symObjAddr: 0x41F8, symBinAddr: 0x100006C48, symSize: 0x50 }
  - { offsetInCU: 0x86E4, offset: 0x86E4, size: 0x8, addend: 0x0, symName: __ZNSt3__14moveB8ue170006IP1AS2_EET0_T_S4_S3_, symObjAddr: 0x4370, symBinAddr: 0x100006DC0, symSize: 0x40 }
  - { offsetInCU: 0x873E, offset: 0x873E, size: 0x8, addend: 0x0, symName: __ZNSt3__16__moveB8ue170006INS_17_ClassicAlgPolicyEP1AS3_S3_EENS_4pairIT0_T2_EES5_T1_S6_, symObjAddr: 0x4444, symBinAddr: 0x100006E94, symSize: 0x44 }
  - { offsetInCU: 0x87AA, offset: 0x87AA, size: 0x8, addend: 0x0, symName: __ZNSt3__123__dispatch_copy_or_moveB8ue170006INS_17_ClassicAlgPolicyENS_11__move_loopIS1_EENS_14__move_trivialEP1AS6_S6_EENS_4pairIT2_T4_EES8_T3_S9_, symObjAddr: 0x4488, symBinAddr: 0x100006ED8, symSize: 0x44 }
  - { offsetInCU: 0x8828, offset: 0x8828, size: 0x8, addend: 0x0, symName: __ZNSt3__121__unwrap_and_dispatchB8ue170006INS_10__overloadINS_11__move_loopINS_17_ClassicAlgPolicyEEENS_14__move_trivialEEEP1AS8_S8_Li0EEENS_4pairIT0_T2_EESA_T1_SB_, symObjAddr: 0x44CC, symBinAddr: 0x100006F1C, symSize: 0xB4 }
  - { offsetInCU: 0x8908, offset: 0x8908, size: 0x8, addend: 0x0, symName: __ZNSt3__18distanceB8ue170006INS_13move_iteratorIP1AEEEENS_15iterator_traitsIT_E15difference_typeES6_S6_, symObjAddr: 0x46F4, symBinAddr: 0x100007144, symSize: 0x3C }
  - { offsetInCU: 0x894B, offset: 0x894B, size: 0x8, addend: 0x0, symName: __ZNSt3__110__distanceB8ue170006INS_13move_iteratorIP1AEEEENS_15iterator_traitsIT_E15difference_typeES6_S6_NS_26random_access_iterator_tagE, symObjAddr: 0x4834, symBinAddr: 0x100007284, symSize: 0x30 }
  - { offsetInCU: 0x8998, offset: 0x8998, size: 0x8, addend: 0x0, symName: __ZNSt3__1miB8ue170006IP1AS2_EENS_13move_iteratorIT_E15difference_typeERKS5_RKNS3_IT0_EE, symObjAddr: 0x4864, symBinAddr: 0x1000072B4, symSize: 0x48 }
  - { offsetInCU: 0x89E7, offset: 0x89E7, size: 0x8, addend: 0x0, symName: __ZNSt3__142__uninitialized_allocator_move_if_noexceptB8ue170006INS_9allocatorI1AEEPS2_S4_S4_EET2_RT_T0_T1_S5_, symObjAddr: 0x48E4, symBinAddr: 0x100007334, symSize: 0xFC }
  - { offsetInCU: 0x8A85, offset: 0x8A85, size: 0x8, addend: 0x0, symName: __ZNSt3__122__make_exception_guardB8ue170006INS_29_AllocatorDestroyRangeReverseINS_9allocatorI1AEEPS3_EEEENS_28__exception_guard_exceptionsIT_EES8_, symObjAddr: 0x49E0, symBinAddr: 0x100007430, symSize: 0x4C }
  - { offsetInCU: 0x8ABB, offset: 0x8ABB, size: 0x8, addend: 0x0, symName: __ZNSt3__119__allocator_destroyB8ue170006INS_9allocatorI1AEENS_16reverse_iteratorIPS2_EES6_EEvRT_T0_T1_, symObjAddr: 0x4C04, symBinAddr: 0x100007654, symSize: 0x70 }
  - { offsetInCU: 0x8D8E, offset: 0x8D8E, size: 0x8, addend: 0x0, symName: __ZSt28__throw_bad_array_new_lengthB8ue170006v, symObjAddr: 0x25F4, symBinAddr: 0x100005044, symSize: 0x34 }
  - { offsetInCU: 0x93FE, offset: 0x93FE, size: 0x8, addend: 0x0, symName: __ZNSt3__16vectorI1ANS_9allocatorIS1_EEE26__swap_out_circular_bufferERNS_14__split_bufferIS1_RS3_EE, symObjAddr: 0x1ED0, symBinAddr: 0x100004920, symSize: 0x110 }
  - { offsetInCU: 0x94A3, offset: 0x94A3, size: 0x8, addend: 0x0, symName: __ZNSt3__16vectorI1ANS_9allocatorIS1_EEE26__swap_out_circular_bufferERNS_14__split_bufferIS1_RS3_EEPS1_, symObjAddr: 0x3D74, symBinAddr: 0x1000067C4, symSize: 0x14C }
  - { offsetInCU: 0xB7CA, offset: 0xB7CA, size: 0x8, addend: 0x0, symName: _main, symObjAddr: 0x0, symBinAddr: 0x100002A50, symSize: 0x200 }
  - { offsetInCU: 0xB801, offset: 0xB801, size: 0x8, addend: 0x0, symName: __ZNSt3__16vectorI1ANS_9allocatorIS1_EEEC1B8ue170006Ev, symObjAddr: 0x200, symBinAddr: 0x100002C50, symSize: 0x2C }
  - { offsetInCU: 0xB82A, offset: 0xB82A, size: 0x8, addend: 0x0, symName: __ZN1AC1Em, symObjAddr: 0x22C, symBinAddr: 0x100002C7C, symSize: 0x34 }
  - { offsetInCU: 0xB860, offset: 0xB860, size: 0x8, addend: 0x0, symName: __ZNSt3__16vectorI1ANS_9allocatorIS1_EEE9push_backB8ue170006EOS1_, symObjAddr: 0x260, symBinAddr: 0x100002CB0, symSize: 0x6C }
  - { offsetInCU: 0xB896, offset: 0xB896, size: 0x8, addend: 0x0, symName: __ZNK1A6LengthEv, symObjAddr: 0x314, symBinAddr: 0x100002D64, symSize: 0x18 }
  - { offsetInCU: 0xB8BB, offset: 0xB8BB, size: 0x8, addend: 0x0, symName: __ZN1AD1Ev, symObjAddr: 0x32C, symBinAddr: 0x100002D7C, symSize: 0x2C }
  - { offsetInCU: 0xB8E3, offset: 0xB8E3, size: 0x8, addend: 0x0, symName: __ZNSt3__16vectorI1ANS_9allocatorIS1_EEE6insertENS_11__wrap_iterIPKS1_EEOS1_, symObjAddr: 0x364, symBinAddr: 0x100002DB4, symSize: 0x1B0 }
  - { offsetInCU: 0xB95B, offset: 0xB95B, size: 0x8, addend: 0x0, symName: __ZNSt3__16vectorI1ANS_9allocatorIS1_EEE5beginB8ue170006Ev, symObjAddr: 0x514, symBinAddr: 0x100002F64, symSize: 0x30 }
  - { offsetInCU: 0xB982, offset: 0xB982, size: 0x8, addend: 0x0, symName: __ZNKSt3__111__wrap_iterIP1AEplB8ue170006El, symObjAddr: 0x544, symBinAddr: 0x100002F94, symSize: 0x3C }
  - { offsetInCU: 0xB9CD, offset: 0xB9CD, size: 0x8, addend: 0x0, symName: __ZNSt3__111__wrap_iterIPK1AEC1B8ue170006IPS1_EERKNS0_IT_EEPNS_9enable_ifIXsr14is_convertibleIS7_S3_EE5valueEvE4typeE, symObjAddr: 0x580, symBinAddr: 0x100002FD0, symSize: 0x3C }
  - { offsetInCU: 0xBA17, offset: 0xBA17, size: 0x8, addend: 0x0, symName: __ZNSt3__16vectorI1ANS_9allocatorIS1_EEED1B8ue170006Ev, symObjAddr: 0x5BC, symBinAddr: 0x10000300C, symSize: 0x2C }
  - { offsetInCU: 0xBA40, offset: 0xBA40, size: 0x8, addend: 0x0, symName: __ZN1AC2Em, symObjAddr: 0x5E8, symBinAddr: 0x100003038, symSize: 0x9C }
  - { offsetInCU: 0xBA77, offset: 0xBA77, size: 0x8, addend: 0x0, symName: __ZNSt3__113basic_ostreamIcNS_11char_traitsIcEEElsB8ue170006EPFRS3_S4_E, symObjAddr: 0x684, symBinAddr: 0x1000030D4, symSize: 0x2C }
  - { offsetInCU: 0xBAA9, offset: 0xBAA9, size: 0x8, addend: 0x0, symName: __ZNKSt3__19basic_iosIcNS_11char_traitsIcEEE5widenB8ue170006Ec, symObjAddr: 0x708, symBinAddr: 0x100003158, symSize: 0x8C }
  - { offsetInCU: 0xBB11, offset: 0xBB11, size: 0x8, addend: 0x0, symName: __ZNKSt3__15ctypeIcE5widenB8ue170006Ec, symObjAddr: 0x7C0, symBinAddr: 0x100003210, symSize: 0x38 }
  - { offsetInCU: 0xBB45, offset: 0xBB45, size: 0x8, addend: 0x0, symName: __ZN1AD2Ev, symObjAddr: 0x7F8, symBinAddr: 0x100003248, symSize: 0xC4 }
  - { offsetInCU: 0xBB6E, offset: 0xBB6E, size: 0x8, addend: 0x0, symName: __ZNSt3__111char_traitsIcE6lengthB8ue170006EPKc, symObjAddr: 0xAB0, symBinAddr: 0x100003500, symSize: 0x48 }
  - { offsetInCU: 0xBBAF, offset: 0xBBAF, size: 0x8, addend: 0x0, symName: __ZNKSt3__113basic_ostreamIcNS_11char_traitsIcEEE6sentrycvbB8ue170006Ev, symObjAddr: 0xAF8, symBinAddr: 0x100003548, symSize: 0x1C }
  - { offsetInCU: 0xBBD4, offset: 0xBBD4, size: 0x8, addend: 0x0, symName: __ZNSt3__119ostreambuf_iteratorIcNS_11char_traitsIcEEEC1B8ue170006ERNS_13basic_ostreamIcS2_EE, symObjAddr: 0xD5C, symBinAddr: 0x1000037AC, symSize: 0x34 }
  - { offsetInCU: 0xBC0B, offset: 0xBC0B, size: 0x8, addend: 0x0, symName: __ZNKSt3__18ios_base5flagsB8ue170006Ev, symObjAddr: 0xD90, symBinAddr: 0x1000037E0, symSize: 0x18 }
  - { offsetInCU: 0xBC31, offset: 0xBC31, size: 0x8, addend: 0x0, symName: __ZNKSt3__19basic_iosIcNS_11char_traitsIcEEE4fillB8ue170006Ev, symObjAddr: 0xDA8, symBinAddr: 0x1000037F8, symSize: 0x64 }
  - { offsetInCU: 0xBC58, offset: 0xBC58, size: 0x8, addend: 0x0, symName: __ZNKSt3__119ostreambuf_iteratorIcNS_11char_traitsIcEEE6failedB8ue170006Ev, symObjAddr: 0xE0C, symBinAddr: 0x10000385C, symSize: 0x24 }
  - { offsetInCU: 0xBC7D, offset: 0xBC7D, size: 0x8, addend: 0x0, symName: __ZNSt3__19basic_iosIcNS_11char_traitsIcEEE8setstateB8ue170006Ej, symObjAddr: 0xE30, symBinAddr: 0x100003880, symSize: 0x2C }
  - { offsetInCU: 0xBCB1, offset: 0xBCB1, size: 0x8, addend: 0x0, symName: __ZNKSt3__18ios_base5widthB8ue170006Ev, symObjAddr: 0xE5C, symBinAddr: 0x1000038AC, symSize: 0x18 }
  - { offsetInCU: 0xBCD8, offset: 0xBCD8, size: 0x8, addend: 0x0, symName: __ZNSt3__115basic_streambufIcNS_11char_traitsIcEEE5sputnB8ue170006EPKcl, symObjAddr: 0xE74, symBinAddr: 0x1000038C4, symSize: 0x3C }
  - { offsetInCU: 0xBD19, offset: 0xBD19, size: 0x8, addend: 0x0, symName: __ZNSt3__112basic_stringIcNS_11char_traitsIcEENS_9allocatorIcEEEC1B8ue170006Emc, symObjAddr: 0xEB0, symBinAddr: 0x100003900, symSize: 0x3C }
  - { offsetInCU: 0xBD60, offset: 0xBD60, size: 0x8, addend: 0x0, symName: __ZNKSt3__112basic_stringIcNS_11char_traitsIcEENS_9allocatorIcEEE4dataB8ue170006Ev, symObjAddr: 0xEEC, symBinAddr: 0x10000393C, symSize: 0x28 }
  - { offsetInCU: 0xBD85, offset: 0xBD85, size: 0x8, addend: 0x0, symName: __ZNSt3__18ios_base5widthB8ue170006El, symObjAddr: 0xF14, symBinAddr: 0x100003964, symSize: 0x2C }
  - { offsetInCU: 0xBDCA, offset: 0xBDCA, size: 0x8, addend: 0x0, symName: __ZNSt3__112basic_stringIcNS_11char_traitsIcEENS_9allocatorIcEEEC2B8ue170006Emc, symObjAddr: 0xF40, symBinAddr: 0x100003990, symSize: 0x4C }
  - { offsetInCU: 0xBE16, offset: 0xBE16, size: 0x8, addend: 0x0, symName: __ZNSt3__117__compressed_pairINS_12basic_stringIcNS_11char_traitsIcEENS_9allocatorIcEEE5__repES5_EC1B8ue170006INS_18__default_init_tagESA_EEOT_OT0_, symObjAddr: 0xF8C, symBinAddr: 0x1000039DC, symSize: 0x3C }
  - { offsetInCU: 0xBE6D, offset: 0xBE6D, size: 0x8, addend: 0x0, symName: __ZNSt3__117__compressed_pairINS_12basic_stringIcNS_11char_traitsIcEENS_9allocatorIcEEE5__repES5_EC2B8ue170006INS_18__default_init_tagESA_EEOT_OT0_, symObjAddr: 0xFC8, symBinAddr: 0x100003A18, symSize: 0x3C }
  - { offsetInCU: 0xBEC4, offset: 0xBEC4, size: 0x8, addend: 0x0, symName: __ZNSt3__122__compressed_pair_elemINS_12basic_stringIcNS_11char_traitsIcEENS_9allocatorIcEEE5__repELi0ELb0EEC2B8ue170006ENS_18__default_init_tagE, symObjAddr: 0x1004, symBinAddr: 0x100003A54, symSize: 0x14 }
  - { offsetInCU: 0xBEF7, offset: 0xBEF7, size: 0x8, addend: 0x0, symName: __ZNSt3__122__compressed_pair_elemINS_9allocatorIcEELi1ELb1EEC2B8ue170006ENS_18__default_init_tagE, symObjAddr: 0x1018, symBinAddr: 0x100003A68, symSize: 0x2C }
  - { offsetInCU: 0xBF2A, offset: 0xBF2A, size: 0x8, addend: 0x0, symName: __ZNSt3__19allocatorIcEC2B8ue170006Ev, symObjAddr: 0x1044, symBinAddr: 0x100003A94, symSize: 0x2C }
  - { offsetInCU: 0xBF53, offset: 0xBF53, size: 0x8, addend: 0x0, symName: __ZNSt3__116__non_trivial_ifILb1ENS_9allocatorIcEEEC2B8ue170006Ev, symObjAddr: 0x1070, symBinAddr: 0x100003AC0, symSize: 0x14 }
  - { offsetInCU: 0xBF7C, offset: 0xBF7C, size: 0x8, addend: 0x0, symName: __ZNKSt3__112basic_stringIcNS_11char_traitsIcEENS_9allocatorIcEEE13__get_pointerB8ue170006Ev, symObjAddr: 0x1098, symBinAddr: 0x100003AE8, symSize: 0x54 }
  - { offsetInCU: 0xBFA1, offset: 0xBFA1, size: 0x8, addend: 0x0, symName: __ZNKSt3__112basic_stringIcNS_11char_traitsIcEENS_9allocatorIcEEE9__is_longB8ue170006Ev, symObjAddr: 0x10EC, symBinAddr: 0x100003B3C, symSize: 0x74 }
  - { offsetInCU: 0xBFC6, offset: 0xBFC6, size: 0x8, addend: 0x0, symName: __ZNKSt3__112basic_stringIcNS_11char_traitsIcEENS_9allocatorIcEEE18__get_long_pointerB8ue170006Ev, symObjAddr: 0x1160, symBinAddr: 0x100003BB0, symSize: 0x28 }
  - { offsetInCU: 0xBFEB, offset: 0xBFEB, size: 0x8, addend: 0x0, symName: __ZNKSt3__112basic_stringIcNS_11char_traitsIcEENS_9allocatorIcEEE19__get_short_pointerB8ue170006Ev, symObjAddr: 0x1188, symBinAddr: 0x100003BD8, symSize: 0x28 }
  - { offsetInCU: 0xC010, offset: 0xC010, size: 0x8, addend: 0x0, symName: __ZNKSt3__117__compressed_pairINS_12basic_stringIcNS_11char_traitsIcEENS_9allocatorIcEEE5__repES5_E5firstB8ue170006Ev, symObjAddr: 0x11BC, symBinAddr: 0x100003C0C, symSize: 0x24 }
  - { offsetInCU: 0xC035, offset: 0xC035, size: 0x8, addend: 0x0, symName: __ZNKSt3__122__compressed_pair_elemINS_12basic_stringIcNS_11char_traitsIcEENS_9allocatorIcEEE5__repELi0ELb0EE5__getB8ue170006Ev, symObjAddr: 0x11E0, symBinAddr: 0x100003C30, symSize: 0x14 }
  - { offsetInCU: 0xC05A, offset: 0xC05A, size: 0x8, addend: 0x0, symName: __ZNSt3__114pointer_traitsIPKcE10pointer_toB8ue170006ERS1_, symObjAddr: 0x11F4, symBinAddr: 0x100003C44, symSize: 0x14 }
  - { offsetInCU: 0xC07D, offset: 0xC07D, size: 0x8, addend: 0x0, symName: __ZNSt3__119ostreambuf_iteratorIcNS_11char_traitsIcEEEC2B8ue170006ERNS_13basic_ostreamIcS2_EE, symObjAddr: 0x1208, symBinAddr: 0x100003C58, symSize: 0x68 }
  - { offsetInCU: 0xC0B3, offset: 0xC0B3, size: 0x8, addend: 0x0, symName: __ZNKSt3__19basic_iosIcNS_11char_traitsIcEEE5rdbufB8ue170006Ev, symObjAddr: 0x1270, symBinAddr: 0x100003CC0, symSize: 0x24 }
  - { offsetInCU: 0xC0DA, offset: 0xC0DA, size: 0x8, addend: 0x0, symName: __ZNKSt3__18ios_base5rdbufB8ue170006Ev, symObjAddr: 0x1294, symBinAddr: 0x100003CE4, symSize: 0x18 }
  - { offsetInCU: 0xC0FF, offset: 0xC0FF, size: 0x8, addend: 0x0, symName: __ZNSt3__111char_traitsIcE11eq_int_typeB8ue170006Eii, symObjAddr: 0x12AC, symBinAddr: 0x100003CFC, symSize: 0x28 }
  - { offsetInCU: 0xC132, offset: 0xC132, size: 0x8, addend: 0x0, symName: __ZNSt3__111char_traitsIcE3eofB8ue170006Ev, symObjAddr: 0x12D4, symBinAddr: 0x100003D24, symSize: 0x8 }
  - { offsetInCU: 0xC145, offset: 0xC145, size: 0x8, addend: 0x0, symName: __ZNSt3__18ios_base8setstateB8ue170006Ej, symObjAddr: 0x12DC, symBinAddr: 0x100003D2C, symSize: 0x34 }
  - { offsetInCU: 0xC17B, offset: 0xC17B, size: 0x8, addend: 0x0, symName: __ZNSt3__16vectorI1ANS_9allocatorIS1_EEEC2B8ue170006Ev, symObjAddr: 0x1334, symBinAddr: 0x100003D84, symSize: 0x44 }
  - { offsetInCU: 0xC1A9, offset: 0xC1A9, size: 0x8, addend: 0x0, symName: __ZNSt3__117__compressed_pairIP1ANS_9allocatorIS1_EEEC1B8ue170006IDnNS_18__default_init_tagEEEOT_OT0_, symObjAddr: 0x1378, symBinAddr: 0x100003DC8, symSize: 0x3C }
  - { offsetInCU: 0xC200, offset: 0xC200, size: 0x8, addend: 0x0, symName: __ZNSt3__117__compressed_pairIP1ANS_9allocatorIS1_EEEC2B8ue170006IDnNS_18__default_init_tagEEEOT_OT0_, symObjAddr: 0x13B4, symBinAddr: 0x100003E04, symSize: 0x40 }
  - { offsetInCU: 0xC257, offset: 0xC257, size: 0x8, addend: 0x0, symName: __ZNSt3__122__compressed_pair_elemIP1ALi0ELb0EEC2B8ue170006IDnvEEOT_, symObjAddr: 0x13F4, symBinAddr: 0x100003E44, symSize: 0x1C }
  - { offsetInCU: 0xC298, offset: 0xC298, size: 0x8, addend: 0x0, symName: __ZNSt3__122__compressed_pair_elemINS_9allocatorI1AEELi1ELb1EEC2B8ue170006ENS_18__default_init_tagE, symObjAddr: 0x1410, symBinAddr: 0x100003E60, symSize: 0x2C }
  - { offsetInCU: 0xC2CB, offset: 0xC2CB, size: 0x8, addend: 0x0, symName: __ZNSt3__19allocatorI1AEC2B8ue170006Ev, symObjAddr: 0x143C, symBinAddr: 0x100003E8C, symSize: 0x2C }
  - { offsetInCU: 0xC2F4, offset: 0xC2F4, size: 0x8, addend: 0x0, symName: __ZNSt3__116__non_trivial_ifILb1ENS_9allocatorI1AEEEC2B8ue170006Ev, symObjAddr: 0x1468, symBinAddr: 0x100003EB8, symSize: 0x14 }
  - { offsetInCU: 0xC31D, offset: 0xC31D, size: 0x8, addend: 0x0, symName: __ZNSt3__16vectorI1ANS_9allocatorIS1_EEED2B8ue170006Ev, symObjAddr: 0x147C, symBinAddr: 0x100003ECC, symSize: 0x3C }
  - { offsetInCU: 0xC346, offset: 0xC346, size: 0x8, addend: 0x0, symName: __ZNSt3__16vectorI1ANS_9allocatorIS1_EEE16__destroy_vectorC1B8ue170006ERS4_, symObjAddr: 0x14B8, symBinAddr: 0x100003F08, symSize: 0x34 }
  - { offsetInCU: 0xC37E, offset: 0xC37E, size: 0x8, addend: 0x0, symName: __ZNSt3__16vectorI1ANS_9allocatorIS1_EEE16__destroy_vectorclB8ue170006Ev, symObjAddr: 0x14EC, symBinAddr: 0x100003F3C, symSize: 0x90 }
  - { offsetInCU: 0xC3A3, offset: 0xC3A3, size: 0x8, addend: 0x0, symName: __ZNSt3__16vectorI1ANS_9allocatorIS1_EEE16__destroy_vectorC2B8ue170006ERS4_, symObjAddr: 0x157C, symBinAddr: 0x100003FCC, symSize: 0x20 }
  - { offsetInCU: 0xC3DB, offset: 0xC3DB, size: 0x8, addend: 0x0, symName: __ZNSt3__16vectorI1ANS_9allocatorIS1_EEE7__clearB8ue170006Ev, symObjAddr: 0x159C, symBinAddr: 0x100003FEC, symSize: 0x28 }
  - { offsetInCU: 0xC400, offset: 0xC400, size: 0x8, addend: 0x0, symName: __ZNKSt3__16vectorI1ANS_9allocatorIS1_EEE17__annotate_deleteB8ue170006Ev, symObjAddr: 0x15C4, symBinAddr: 0x100004014, symSize: 0xB8 }
  - { offsetInCU: 0xC425, offset: 0xC425, size: 0x8, addend: 0x0, symName: __ZNSt3__116allocator_traitsINS_9allocatorI1AEEE10deallocateB8ue170006ERS3_PS2_m, symObjAddr: 0x167C, symBinAddr: 0x1000040CC, symSize: 0x34 }
  - { offsetInCU: 0xC467, offset: 0xC467, size: 0x8, addend: 0x0, symName: __ZNSt3__16vectorI1ANS_9allocatorIS1_EEE7__allocB8ue170006Ev, symObjAddr: 0x16B0, symBinAddr: 0x100004100, symSize: 0x28 }
  - { offsetInCU: 0xC48C, offset: 0xC48C, size: 0x8, addend: 0x0, symName: __ZNKSt3__16vectorI1ANS_9allocatorIS1_EEE8capacityB8ue170006Ev, symObjAddr: 0x16D8, symBinAddr: 0x100004128, symSize: 0x40 }
  - { offsetInCU: 0xC4B1, offset: 0xC4B1, size: 0x8, addend: 0x0, symName: __ZNSt3__16vectorI1ANS_9allocatorIS1_EEE22__base_destruct_at_endB8ue170006EPS1_, symObjAddr: 0x1718, symBinAddr: 0x100004168, symSize: 0xA0 }
  - { offsetInCU: 0xC4F4, offset: 0xC4F4, size: 0x8, addend: 0x0, symName: __ZNSt3__116allocator_traitsINS_9allocatorI1AEEE7destroyB8ue170006IS2_vEEvRS3_PT_, symObjAddr: 0x17B8, symBinAddr: 0x100004208, symSize: 0x2C }
  - { offsetInCU: 0xC531, offset: 0xC531, size: 0x8, addend: 0x0, symName: __ZNSt3__19allocatorI1AE7destroyB8ue170006EPS1_, symObjAddr: 0x17F8, symBinAddr: 0x100004248, symSize: 0x28 }
  - { offsetInCU: 0xC564, offset: 0xC564, size: 0x8, addend: 0x0, symName: __ZNKSt3__16vectorI1ANS_9allocatorIS1_EEE31__annotate_contiguous_containerB8ue170006EPKvS6_S6_S6_, symObjAddr: 0x1820, symBinAddr: 0x100004270, symSize: 0x20 }
  - { offsetInCU: 0xC5B9, offset: 0xC5B9, size: 0x8, addend: 0x0, symName: __ZNKSt3__16vectorI1ANS_9allocatorIS1_EEE4dataB8ue170006Ev, symObjAddr: 0x1840, symBinAddr: 0x100004290, symSize: 0x28 }
  - { offsetInCU: 0xC5DE, offset: 0xC5DE, size: 0x8, addend: 0x0, symName: __ZNKSt3__16vectorI1ANS_9allocatorIS1_EEE4sizeB8ue170006Ev, symObjAddr: 0x1868, symBinAddr: 0x1000042B8, symSize: 0x28 }
  - { offsetInCU: 0xC603, offset: 0xC603, size: 0x8, addend: 0x0, symName: __ZNSt3__19allocatorI1AE10deallocateB8ue170006EPS1_m, symObjAddr: 0x1890, symBinAddr: 0x1000042E0, symSize: 0x70 }
  - { offsetInCU: 0xC644, offset: 0xC644, size: 0x8, addend: 0x0, symName: __ZNSt3__117__compressed_pairIP1ANS_9allocatorIS1_EEE6secondB8ue170006Ev, symObjAddr: 0x197C, symBinAddr: 0x1000043CC, symSize: 0x24 }
  - { offsetInCU: 0xC669, offset: 0xC669, size: 0x8, addend: 0x0, symName: __ZNSt3__122__compressed_pair_elemINS_9allocatorI1AEELi1ELb1EE5__getB8ue170006Ev, symObjAddr: 0x19A0, symBinAddr: 0x1000043F0, symSize: 0x14 }
  - { offsetInCU: 0xC68E, offset: 0xC68E, size: 0x8, addend: 0x0, symName: __ZNKSt3__16vectorI1ANS_9allocatorIS1_EEE9__end_capB8ue170006Ev, symObjAddr: 0x19B4, symBinAddr: 0x100004404, symSize: 0x28 }
  - { offsetInCU: 0xC6B3, offset: 0xC6B3, size: 0x8, addend: 0x0, symName: __ZNKSt3__117__compressed_pairIP1ANS_9allocatorIS1_EEE5firstB8ue170006Ev, symObjAddr: 0x19DC, symBinAddr: 0x10000442C, symSize: 0x24 }
  - { offsetInCU: 0xC6D8, offset: 0xC6D8, size: 0x8, addend: 0x0, symName: __ZNKSt3__122__compressed_pair_elemIP1ALi0ELb0EE5__getB8ue170006Ev, symObjAddr: 0x1A00, symBinAddr: 0x100004450, symSize: 0x14 }
  - { offsetInCU: 0xC6FD, offset: 0xC6FD, size: 0x8, addend: 0x0, symName: __ZNSt3__16vectorI1ANS_9allocatorIS1_EEE9__end_capB8ue170006Ev, symObjAddr: 0x1A14, symBinAddr: 0x100004464, symSize: 0x28 }
  - { offsetInCU: 0xC722, offset: 0xC722, size: 0x8, addend: 0x0, symName: __ZNSt3__16vectorI1ANS_9allocatorIS1_EEE22__construct_one_at_endB8ue170006IJS1_EEEvDpOT_, symObjAddr: 0x1A3C, symBinAddr: 0x10000448C, symSize: 0x98 }
  - { offsetInCU: 0xC76F, offset: 0xC76F, size: 0x8, addend: 0x0, symName: __ZNSt3__16vectorI1ANS_9allocatorIS1_EEE21__push_back_slow_pathIS1_EEvOT_, symObjAddr: 0x1AD4, symBinAddr: 0x100004524, symSize: 0xE0 }
  - { offsetInCU: 0xC7CC, offset: 0xC7CC, size: 0x8, addend: 0x0, symName: __ZNSt3__117__compressed_pairIP1ANS_9allocatorIS1_EEE5firstB8ue170006Ev, symObjAddr: 0x1BB4, symBinAddr: 0x100004604, symSize: 0x24 }
  - { offsetInCU: 0xC7F1, offset: 0xC7F1, size: 0x8, addend: 0x0, symName: __ZNSt3__122__compressed_pair_elemIP1ALi0ELb0EE5__getB8ue170006Ev, symObjAddr: 0x1BD8, symBinAddr: 0x100004628, symSize: 0x14 }
  - { offsetInCU: 0xC82F, offset: 0xC82F, size: 0x8, addend: 0x0, symName: __ZNSt3__16vectorI1ANS_9allocatorIS1_EEE21_ConstructTransactionC1B8ue170006ERS4_m, symObjAddr: 0x1BEC, symBinAddr: 0x10000463C, symSize: 0x3C }
  - { offsetInCU: 0xC876, offset: 0xC876, size: 0x8, addend: 0x0, symName: __ZNSt3__116allocator_traitsINS_9allocatorI1AEEE9constructB8ue170006IS2_JS2_EvEEvRS3_PT_DpOT0_, symObjAddr: 0x1C28, symBinAddr: 0x100004678, symSize: 0x34 }
  - { offsetInCU: 0xC8CD, offset: 0xC8CD, size: 0x8, addend: 0x0, symName: __ZNSt3__16vectorI1ANS_9allocatorIS1_EEE21_ConstructTransactionD1B8ue170006Ev, symObjAddr: 0x1C5C, symBinAddr: 0x1000046AC, symSize: 0x2C }
  - { offsetInCU: 0xC8F6, offset: 0xC8F6, size: 0x8, addend: 0x0, symName: __ZNSt3__16vectorI1ANS_9allocatorIS1_EEE21_ConstructTransactionC2B8ue170006ERS4_m, symObjAddr: 0x1C88, symBinAddr: 0x1000046D8, symSize: 0x44 }
  - { offsetInCU: 0xC93D, offset: 0xC93D, size: 0x8, addend: 0x0, symName: __ZNSt3__19allocatorI1AE9constructB8ue170006IS1_JS1_EEEvPT_DpOT0_, symObjAddr: 0x1CCC, symBinAddr: 0x10000471C, symSize: 0x30 }
  - { offsetInCU: 0xC992, offset: 0xC992, size: 0x8, addend: 0x0, symName: __ZN1AC1EOS_, symObjAddr: 0x1CFC, symBinAddr: 0x10000474C, symSize: 0x34 }
  - { offsetInCU: 0xC9C9, offset: 0xC9C9, size: 0x8, addend: 0x0, symName: __ZN1AC2EOS_, symObjAddr: 0x1D30, symBinAddr: 0x100004780, symSize: 0x88 }
  - { offsetInCU: 0xCA00, offset: 0xCA00, size: 0x8, addend: 0x0, symName: __ZNSt3__16vectorI1ANS_9allocatorIS1_EEE21_ConstructTransactionD2B8ue170006Ev, symObjAddr: 0x1DB8, symBinAddr: 0x100004808, symSize: 0x20 }
  - { offsetInCU: 0xCA28, offset: 0xCA28, size: 0x8, addend: 0x0, symName: __ZNKSt3__16vectorI1ANS_9allocatorIS1_EEE11__recommendB8ue170006Em, symObjAddr: 0x1DD8, symBinAddr: 0x100004828, symSize: 0xB4 }
  - { offsetInCU: 0xCA7C, offset: 0xCA7C, size: 0x8, addend: 0x0, symName: __ZNSt3__114__split_bufferI1ARNS_9allocatorIS1_EEEC1EmmS4_, symObjAddr: 0x1E8C, symBinAddr: 0x1000048DC, symSize: 0x44 }
  - { offsetInCU: 0xCAD1, offset: 0xCAD1, size: 0x8, addend: 0x0, symName: __ZNSt3__114__split_bufferI1ARNS_9allocatorIS1_EEED1Ev, symObjAddr: 0x1FE0, symBinAddr: 0x100004A30, symSize: 0x2C }
  - { offsetInCU: 0xCAFB, offset: 0xCAFB, size: 0x8, addend: 0x0, symName: __ZNKSt3__16vectorI1ANS_9allocatorIS1_EEE8max_sizeEv, symObjAddr: 0x200C, symBinAddr: 0x100004A5C, symSize: 0x74 }
  - { offsetInCU: 0xCB22, offset: 0xCB22, size: 0x8, addend: 0x0, symName: __ZNKSt3__16vectorI1ANS_9allocatorIS1_EEE20__throw_length_errorB8ue170006Ev, symObjAddr: 0x2080, symBinAddr: 0x100004AD0, symSize: 0x1C }
  - { offsetInCU: 0xCB51, offset: 0xCB51, size: 0x8, addend: 0x0, symName: __ZNSt3__116allocator_traitsINS_9allocatorI1AEEE8max_sizeB8ue170006IS3_vEEmRKS3_, symObjAddr: 0x20F4, symBinAddr: 0x100004B44, symSize: 0x24 }
  - { offsetInCU: 0xCB7F, offset: 0xCB7F, size: 0x8, addend: 0x0, symName: __ZNKSt3__16vectorI1ANS_9allocatorIS1_EEE7__allocB8ue170006Ev, symObjAddr: 0x2118, symBinAddr: 0x100004B68, symSize: 0x28 }
  - { offsetInCU: 0xCBA4, offset: 0xCBA4, size: 0x8, addend: 0x0, symName: __ZNSt3__114numeric_limitsIlE3maxB8ue170006Ev, symObjAddr: 0x2140, symBinAddr: 0x100004B90, symSize: 0x14 }
  - { offsetInCU: 0xCBCC, offset: 0xCBCC, size: 0x8, addend: 0x0, symName: __ZNKSt3__16__lessIvvEclB8ue170006ImmEEbRKT_RKT0_, symObjAddr: 0x21A8, symBinAddr: 0x100004BF8, symSize: 0x34 }
  - { offsetInCU: 0xCC1F, offset: 0xCC1F, size: 0x8, addend: 0x0, symName: __ZNKSt3__19allocatorI1AE8max_sizeB8ue170006Ev, symObjAddr: 0x21DC, symBinAddr: 0x100004C2C, symSize: 0x14 }
  - { offsetInCU: 0xCC44, offset: 0xCC44, size: 0x8, addend: 0x0, symName: __ZNKSt3__117__compressed_pairIP1ANS_9allocatorIS1_EEE6secondB8ue170006Ev, symObjAddr: 0x21F0, symBinAddr: 0x100004C40, symSize: 0x24 }
  - { offsetInCU: 0xCC69, offset: 0xCC69, size: 0x8, addend: 0x0, symName: __ZNKSt3__122__compressed_pair_elemINS_9allocatorI1AEELi1ELb1EE5__getB8ue170006Ev, symObjAddr: 0x2214, symBinAddr: 0x100004C64, symSize: 0x14 }
  - { offsetInCU: 0xCC8E, offset: 0xCC8E, size: 0x8, addend: 0x0, symName: __ZNSt3__123__libcpp_numeric_limitsIlLb1EE3maxB8ue170006Ev, symObjAddr: 0x2228, symBinAddr: 0x100004C78, symSize: 0x8 }
  - { offsetInCU: 0xCCA2, offset: 0xCCA2, size: 0x8, addend: 0x0, symName: __ZNSt12length_errorC1B8ue170006EPKc, symObjAddr: 0x2294, symBinAddr: 0x100004CE4, symSize: 0x34 }
  - { offsetInCU: 0xCCD9, offset: 0xCCD9, size: 0x8, addend: 0x0, symName: __ZNSt12length_errorC2B8ue170006EPKc, symObjAddr: 0x22C8, symBinAddr: 0x100004D18, symSize: 0x4C }
  - { offsetInCU: 0xCD10, offset: 0xCD10, size: 0x8, addend: 0x0, symName: __ZNSt3__114__split_bufferI1ARNS_9allocatorIS1_EEEC2EmmS4_, symObjAddr: 0x2368, symBinAddr: 0x100004DB8, symSize: 0xD4 }
  - { offsetInCU: 0xCD83, offset: 0xCD83, size: 0x8, addend: 0x0, symName: __ZNSt3__117__compressed_pairIP1ARNS_9allocatorIS1_EEEC1B8ue170006IDnS5_EEOT_OT0_, symObjAddr: 0x243C, symBinAddr: 0x100004E8C, symSize: 0x3C }
  - { offsetInCU: 0xCDDA, offset: 0xCDDA, size: 0x8, addend: 0x0, symName: __ZNSt3__114__split_bufferI1ARNS_9allocatorIS1_EEE7__allocB8ue170006Ev, symObjAddr: 0x24B8, symBinAddr: 0x100004F08, symSize: 0x28 }
  - { offsetInCU: 0xCDFF, offset: 0xCDFF, size: 0x8, addend: 0x0, symName: __ZNSt3__114__split_bufferI1ARNS_9allocatorIS1_EEE9__end_capB8ue170006Ev, symObjAddr: 0x24E0, symBinAddr: 0x100004F30, symSize: 0x28 }
  - { offsetInCU: 0xCE24, offset: 0xCE24, size: 0x8, addend: 0x0, symName: __ZNSt3__117__compressed_pairIP1ARNS_9allocatorIS1_EEEC2B8ue170006IDnS5_EEOT_OT0_, symObjAddr: 0x2508, symBinAddr: 0x100004F58, symSize: 0x48 }
  - { offsetInCU: 0xCE7B, offset: 0xCE7B, size: 0x8, addend: 0x0, symName: __ZNSt3__122__compressed_pair_elemIRNS_9allocatorI1AEELi1ELb0EEC2B8ue170006IS4_vEEOT_, symObjAddr: 0x2550, symBinAddr: 0x100004FA0, symSize: 0x20 }
  - { offsetInCU: 0xCEBC, offset: 0xCEBC, size: 0x8, addend: 0x0, symName: __ZNSt3__19allocatorI1AE8allocateB8ue170006Em, symObjAddr: 0x2570, symBinAddr: 0x100004FC0, symSize: 0x84 }
  - { offsetInCU: 0xCEEF, offset: 0xCEEF, size: 0x8, addend: 0x0, symName: __ZNSt3__117__compressed_pairIP1ARNS_9allocatorIS1_EEE6secondB8ue170006Ev, symObjAddr: 0x2674, symBinAddr: 0x1000050C4, symSize: 0x28 }
  - { offsetInCU: 0xCF14, offset: 0xCF14, size: 0x8, addend: 0x0, symName: __ZNSt3__122__compressed_pair_elemIRNS_9allocatorI1AEELi1ELb0EE5__getB8ue170006Ev, symObjAddr: 0x269C, symBinAddr: 0x1000050EC, symSize: 0x18 }
  - { offsetInCU: 0xCF39, offset: 0xCF39, size: 0x8, addend: 0x0, symName: __ZNSt3__117__compressed_pairIP1ARNS_9allocatorIS1_EEE5firstB8ue170006Ev, symObjAddr: 0x26B4, symBinAddr: 0x100005104, symSize: 0x24 }
  - { offsetInCU: 0xCF5E, offset: 0xCF5E, size: 0x8, addend: 0x0, symName: __ZNSt3__116reverse_iteratorIP1AEC1B8ue170006ES2_, symObjAddr: 0x280C, symBinAddr: 0x10000525C, symSize: 0x34 }
  - { offsetInCU: 0xCF95, offset: 0xCF95, size: 0x8, addend: 0x0, symName: __ZNKSt3__116reverse_iteratorIP1AE4baseB8ue170006Ev, symObjAddr: 0x2840, symBinAddr: 0x100005290, symSize: 0x18 }
  - { offsetInCU: 0xCFBA, offset: 0xCFBA, size: 0x8, addend: 0x0, symName: __ZNKSt3__16vectorI1ANS_9allocatorIS1_EEE14__annotate_newB8ue170006Em, symObjAddr: 0x2894, symBinAddr: 0x1000052E4, symSize: 0xAC }
  - { offsetInCU: 0xCFEE, offset: 0xCFEE, size: 0x8, addend: 0x0, symName: __ZNSt3__129_AllocatorDestroyRangeReverseINS_9allocatorI1AEENS_16reverse_iteratorIPS2_EEEC1B8ue170006ERS3_RS6_S9_, symObjAddr: 0x298C, symBinAddr: 0x1000053DC, symSize: 0x44 }
  - { offsetInCU: 0xD044, offset: 0xD044, size: 0x8, addend: 0x0, symName: __ZNSt3__116allocator_traitsINS_9allocatorI1AEEE9constructB8ue170006IS2_JRKS2_EvEEvRS3_PT_DpOT0_, symObjAddr: 0x2A18, symBinAddr: 0x100005468, symSize: 0x34 }
  - { offsetInCU: 0xD09B, offset: 0xD09B, size: 0x8, addend: 0x0, symName: __ZNKSt3__116reverse_iteratorIP1AEdeB8ue170006Ev, symObjAddr: 0x2A70, symBinAddr: 0x1000054C0, symSize: 0x28 }
  - { offsetInCU: 0xD0CE, offset: 0xD0CE, size: 0x8, addend: 0x0, symName: __ZNSt3__116reverse_iteratorIP1AEppB8ue170006Ev, symObjAddr: 0x2A98, symBinAddr: 0x1000054E8, symSize: 0x20 }
  - { offsetInCU: 0xD0F3, offset: 0xD0F3, size: 0x8, addend: 0x0, symName: __ZNSt3__128__exception_guard_exceptionsINS_29_AllocatorDestroyRangeReverseINS_9allocatorI1AEENS_16reverse_iteratorIPS3_EEEEE10__completeB8ue170006Ev, symObjAddr: 0x2AB8, symBinAddr: 0x100005508, symSize: 0x1C }
  - { offsetInCU: 0xD118, offset: 0xD118, size: 0x8, addend: 0x0, symName: __ZNSt3__128__exception_guard_exceptionsINS_29_AllocatorDestroyRangeReverseINS_9allocatorI1AEENS_16reverse_iteratorIPS3_EEEEED1B8ue170006Ev, symObjAddr: 0x2AD4, symBinAddr: 0x100005524, symSize: 0x2C }
  - { offsetInCU: 0xD141, offset: 0xD141, size: 0x8, addend: 0x0, symName: __ZNSt3__128__exception_guard_exceptionsINS_29_AllocatorDestroyRangeReverseINS_9allocatorI1AEENS_16reverse_iteratorIPS3_EEEEEC1B8ue170006ES8_, symObjAddr: 0x2B00, symBinAddr: 0x100005550, symSize: 0x34 }
  - { offsetInCU: 0xD179, offset: 0xD179, size: 0x8, addend: 0x0, symName: __ZNSt3__128__exception_guard_exceptionsINS_29_AllocatorDestroyRangeReverseINS_9allocatorI1AEENS_16reverse_iteratorIPS3_EEEEEC2B8ue170006ES8_, symObjAddr: 0x2B34, symBinAddr: 0x100005584, symSize: 0x30 }
  - { offsetInCU: 0xD1B1, offset: 0xD1B1, size: 0x8, addend: 0x0, symName: __ZNSt3__129_AllocatorDestroyRangeReverseINS_9allocatorI1AEENS_16reverse_iteratorIPS2_EEEC2B8ue170006ERS3_RS6_S9_, symObjAddr: 0x2B64, symBinAddr: 0x1000055B4, symSize: 0x38 }
  - { offsetInCU: 0xD207, offset: 0xD207, size: 0x8, addend: 0x0, symName: __ZNSt3__19allocatorI1AE9constructB8ue170006IS1_JRKS1_EEEvPT_DpOT0_, symObjAddr: 0x2B9C, symBinAddr: 0x1000055EC, symSize: 0x30 }
  - { offsetInCU: 0xD25C, offset: 0xD25C, size: 0x8, addend: 0x0, symName: __ZN1AC1ERKS_, symObjAddr: 0x2BCC, symBinAddr: 0x10000561C, symSize: 0x34 }
  - { offsetInCU: 0xD293, offset: 0xD293, size: 0x8, addend: 0x0, symName: __ZN1AC2ERKS_, symObjAddr: 0x2C00, symBinAddr: 0x100005650, symSize: 0xC8 }
  - { offsetInCU: 0xD2F7, offset: 0xD2F7, size: 0x8, addend: 0x0, symName: __ZNKSt3__114__copy_trivialclB8ue170006IiiLi0EEENS_4pairIPT_PT0_EES4_S4_S6_, symObjAddr: 0x2EA4, symBinAddr: 0x1000058F4, symSize: 0x48 }
  - { offsetInCU: 0xD35E, offset: 0xD35E, size: 0x8, addend: 0x0, symName: __ZNSt3__14pairIPiS1_EC1B8ue170006ERKS1_S4_, symObjAddr: 0x311C, symBinAddr: 0x100005B6C, symSize: 0x3C }
  - { offsetInCU: 0xD3A3, offset: 0xD3A3, size: 0x8, addend: 0x0, symName: __ZNSt3__14pairIPiS1_EC2B8ue170006ERKS1_S4_, symObjAddr: 0x3158, symBinAddr: 0x100005BA8, symSize: 0x34 }
  - { offsetInCU: 0xD3E8, offset: 0xD3E8, size: 0x8, addend: 0x0, symName: __ZNSt3__118__unwrap_iter_implIPiLb1EE8__unwrapB8ue170006ES1_, symObjAddr: 0x318C, symBinAddr: 0x100005BDC, symSize: 0x24 }
  - { offsetInCU: 0xD40B, offset: 0xD40B, size: 0x8, addend: 0x0, symName: __ZNSt3__118__unwrap_iter_implIPiLb1EE8__rewrapB8ue170006ES1_S1_, symObjAddr: 0x31C4, symBinAddr: 0x100005C14, symSize: 0x50 }
  - { offsetInCU: 0xD441, offset: 0xD441, size: 0x8, addend: 0x0, symName: __ZNSt3__119__to_address_helperINS_16reverse_iteratorIP1AEEvE6__callB8ue170006ERKS4_, symObjAddr: 0x3214, symBinAddr: 0x100005C64, symSize: 0x4C }
  - { offsetInCU: 0xD464, offset: 0xD464, size: 0x8, addend: 0x0, symName: __ZNKSt3__116reverse_iteratorIP1AEptB8ue170006Ev, symObjAddr: 0x3260, symBinAddr: 0x100005CB0, symSize: 0x24 }
  - { offsetInCU: 0xD489, offset: 0xD489, size: 0x8, addend: 0x0, symName: __ZNSt3__128__exception_guard_exceptionsINS_29_AllocatorDestroyRangeReverseINS_9allocatorI1AEENS_16reverse_iteratorIPS3_EEEEED2B8ue170006Ev, symObjAddr: 0x3284, symBinAddr: 0x100005CD4, symSize: 0x48 }
  - { offsetInCU: 0xD4B2, offset: 0xD4B2, size: 0x8, addend: 0x0, symName: __ZNKSt3__129_AllocatorDestroyRangeReverseINS_9allocatorI1AEENS_16reverse_iteratorIPS2_EEEclB8ue170006Ev, symObjAddr: 0x32CC, symBinAddr: 0x100005D1C, symSize: 0xB4 }
  - { offsetInCU: 0xD4D8, offset: 0xD4D8, size: 0x8, addend: 0x0, symName: __ZNSt3__116reverse_iteratorINS0_IP1AEEEC1B8ue170006ES3_, symObjAddr: 0x33F0, symBinAddr: 0x100005E40, symSize: 0x3C }
  - { offsetInCU: 0xD50F, offset: 0xD50F, size: 0x8, addend: 0x0, symName: __ZNSt3__116reverse_iteratorINS0_IP1AEEEppB8ue170006Ev, symObjAddr: 0x34B0, symBinAddr: 0x100005F00, symSize: 0x30 }
  - { offsetInCU: 0xD534, offset: 0xD534, size: 0x8, addend: 0x0, symName: __ZNKSt3__116reverse_iteratorINS0_IP1AEEE4baseB8ue170006Ev, symObjAddr: 0x34E0, symBinAddr: 0x100005F30, symSize: 0x24 }
  - { offsetInCU: 0xD55E, offset: 0xD55E, size: 0x8, addend: 0x0, symName: __ZNSt3__119__to_address_helperINS_16reverse_iteratorINS1_IP1AEEEEvE6__callB8ue170006ERKS5_, symObjAddr: 0x3504, symBinAddr: 0x100005F54, symSize: 0x4C }
  - { offsetInCU: 0xD581, offset: 0xD581, size: 0x8, addend: 0x0, symName: __ZNKSt3__116reverse_iteratorINS0_IP1AEEEptB8ue170006Ev, symObjAddr: 0x3550, symBinAddr: 0x100005FA0, symSize: 0x24 }
  - { offsetInCU: 0xD5A6, offset: 0xD5A6, size: 0x8, addend: 0x0, symName: __ZNKSt3__116reverse_iteratorINS0_IP1AEEEdeB8ue170006Ev, symObjAddr: 0x3574, symBinAddr: 0x100005FC4, symSize: 0x34 }
  - { offsetInCU: 0xD5D9, offset: 0xD5D9, size: 0x8, addend: 0x0, symName: __ZNSt3__116reverse_iteratorIP1AEmmB8ue170006Ev, symObjAddr: 0x35A8, symBinAddr: 0x100005FF8, symSize: 0x20 }
  - { offsetInCU: 0xD5FE, offset: 0xD5FE, size: 0x8, addend: 0x0, symName: __ZNSt3__116reverse_iteratorINS0_IP1AEEEC2B8ue170006ES3_, symObjAddr: 0x35C8, symBinAddr: 0x100006018, symSize: 0x2C }
  - { offsetInCU: 0xD635, offset: 0xD635, size: 0x8, addend: 0x0, symName: __ZNSt3__116reverse_iteratorIP1AEC2B8ue170006ES2_, symObjAddr: 0x35F4, symBinAddr: 0x100006044, symSize: 0x28 }
  - { offsetInCU: 0xD66C, offset: 0xD66C, size: 0x8, addend: 0x0, symName: __ZNSt3__114__split_bufferI1ARNS_9allocatorIS1_EEED2Ev, symObjAddr: 0x361C, symBinAddr: 0x10000606C, symSize: 0x80 }
  - { offsetInCU: 0xD697, offset: 0xD697, size: 0x8, addend: 0x0, symName: __ZNSt3__114__split_bufferI1ARNS_9allocatorIS1_EEE5clearB8ue170006Ev, symObjAddr: 0x369C, symBinAddr: 0x1000060EC, symSize: 0x28 }
  - { offsetInCU: 0xD6BC, offset: 0xD6BC, size: 0x8, addend: 0x0, symName: __ZNKSt3__114__split_bufferI1ARNS_9allocatorIS1_EEE8capacityB8ue170006Ev, symObjAddr: 0x36C4, symBinAddr: 0x100006114, symSize: 0x40 }
  - { offsetInCU: 0xD6E1, offset: 0xD6E1, size: 0x8, addend: 0x0, symName: __ZNSt3__114__split_bufferI1ARNS_9allocatorIS1_EEE17__destruct_at_endB8ue170006EPS1_, symObjAddr: 0x3704, symBinAddr: 0x100006154, symSize: 0x2C }
  - { offsetInCU: 0xD713, offset: 0xD713, size: 0x8, addend: 0x0, symName: __ZNSt3__114__split_bufferI1ARNS_9allocatorIS1_EEE17__destruct_at_endB8ue170006EPS1_NS_17integral_constantIbLb0EEE, symObjAddr: 0x3730, symBinAddr: 0x100006180, symSize: 0x94 }
  - { offsetInCU: 0xD752, offset: 0xD752, size: 0x8, addend: 0x0, symName: __ZNKSt3__114__split_bufferI1ARNS_9allocatorIS1_EEE9__end_capB8ue170006Ev, symObjAddr: 0x37C4, symBinAddr: 0x100006214, symSize: 0x28 }
  - { offsetInCU: 0xD777, offset: 0xD777, size: 0x8, addend: 0x0, symName: __ZNKSt3__117__compressed_pairIP1ARNS_9allocatorIS1_EEE5firstB8ue170006Ev, symObjAddr: 0x37EC, symBinAddr: 0x10000623C, symSize: 0x24 }
  - { offsetInCU: 0xD79C, offset: 0xD79C, size: 0x8, addend: 0x0, symName: __ZNSt3__16vectorI1ANS_9allocatorIS1_EEE11__make_iterB8ue170006EPS1_, symObjAddr: 0x3810, symBinAddr: 0x100006260, symSize: 0x30 }
  - { offsetInCU: 0xD7D0, offset: 0xD7D0, size: 0x8, addend: 0x0, symName: __ZNSt3__111__wrap_iterIP1AEC1B8ue170006ES2_, symObjAddr: 0x3840, symBinAddr: 0x100006290, symSize: 0x34 }
  - { offsetInCU: 0xD807, offset: 0xD807, size: 0x8, addend: 0x0, symName: __ZNSt3__111__wrap_iterIP1AEC2B8ue170006ES2_, symObjAddr: 0x3874, symBinAddr: 0x1000062C4, symSize: 0x20 }
  - { offsetInCU: 0xD83E, offset: 0xD83E, size: 0x8, addend: 0x0, symName: __ZNSt3__111__wrap_iterIP1AEpLB8ue170006El, symObjAddr: 0x3894, symBinAddr: 0x1000062E4, symSize: 0x28 }
  - { offsetInCU: 0xD870, offset: 0xD870, size: 0x8, addend: 0x0, symName: __ZNSt3__16vectorI1ANS_9allocatorIS1_EEE12__move_rangeEPS1_S5_S5_, symObjAddr: 0x3904, symBinAddr: 0x100006354, symSize: 0x134 }
  - { offsetInCU: 0xD92D, offset: 0xD92D, size: 0x8, addend: 0x0, symName: __ZN1AaSEOS_, symObjAddr: 0x3A38, symBinAddr: 0x100006488, symSize: 0xD4 }
  - { offsetInCU: 0xD95F, offset: 0xD95F, size: 0x8, addend: 0x0, symName: __ZNSt3__114__split_bufferI1ARNS_9allocatorIS1_EEE9push_backEOS1_, symObjAddr: 0x3B0C, symBinAddr: 0x10000655C, symSize: 0x268 }
  - { offsetInCU: 0xD9D7, offset: 0xD9D7, size: 0x8, addend: 0x0, symName: __ZNKSt3__111__wrap_iterIPK1AE4baseB8ue170006Ev, symObjAddr: 0x3EC0, symBinAddr: 0x100006910, symSize: 0x18 }
  - { offsetInCU: 0xD9FC, offset: 0xD9FC, size: 0x8, addend: 0x0, symName: __ZNKSt3__111__wrap_iterIP1AE4baseB8ue170006Ev, symObjAddr: 0x3ED8, symBinAddr: 0x100006928, symSize: 0x18 }
  - { offsetInCU: 0xDA44, offset: 0xDA44, size: 0x8, addend: 0x0, symName: __ZNKSt3__120__move_backward_loopINS_17_ClassicAlgPolicyEEclB8ue170006IP1AS5_S5_EENS_4pairIT_T1_EES7_T0_S8_, symObjAddr: 0x40CC, symBinAddr: 0x100006B1C, symSize: 0xA4 }
  - { offsetInCU: 0xDACA, offset: 0xDACA, size: 0x8, addend: 0x0, symName: __ZNSt3__18_IterOpsINS_17_ClassicAlgPolicyEE4nextB8ue170006IP1AEET_S6_S6_, symObjAddr: 0x4248, symBinAddr: 0x100006C98, symSize: 0x18 }
  - { offsetInCU: 0xDB00, offset: 0xDB00, size: 0x8, addend: 0x0, symName: __ZNSt3__18_IterOpsINS_17_ClassicAlgPolicyEE11__iter_moveB8ue170006IRP1AEENS_9enable_ifIXsr12is_referenceIDTdeclsr3stdE7declvalIRT_EEEEE5valueEDTclsr3stdE4movedeclsr3stdE7declvalIS9_EEEEE4typeEOS8_, symObjAddr: 0x4260, symBinAddr: 0x100006CB0, symSize: 0x28 }
  - { offsetInCU: 0xDB2C, offset: 0xDB2C, size: 0x8, addend: 0x0, symName: __ZNSt3__18_IterOpsINS_17_ClassicAlgPolicyEE25__validate_iter_referenceB8ue170006IRP1AEEvv, symObjAddr: 0x4288, symBinAddr: 0x100006CD8, symSize: 0x4 }
  - { offsetInCU: 0xDB4A, offset: 0xDB4A, size: 0x8, addend: 0x0, symName: __ZNSt3__118__unwrap_iter_implIP1ALb1EE8__unwrapB8ue170006ES2_, symObjAddr: 0x428C, symBinAddr: 0x100006CDC, symSize: 0x24 }
  - { offsetInCU: 0xDB6D, offset: 0xDB6D, size: 0x8, addend: 0x0, symName: __ZNSt3__14pairIP1AS2_EC1B8ue170006ERKS2_S5_, symObjAddr: 0x42B0, symBinAddr: 0x100006D00, symSize: 0x3C }
  - { offsetInCU: 0xDBB2, offset: 0xDBB2, size: 0x8, addend: 0x0, symName: __ZNSt3__14pairIP1AS2_EC2B8ue170006ERKS2_S5_, symObjAddr: 0x42EC, symBinAddr: 0x100006D3C, symSize: 0x34 }
  - { offsetInCU: 0xDBF7, offset: 0xDBF7, size: 0x8, addend: 0x0, symName: __ZNSt3__118__unwrap_iter_implIP1ALb1EE8__rewrapB8ue170006ES2_S2_, symObjAddr: 0x4320, symBinAddr: 0x100006D70, symSize: 0x50 }
  - { offsetInCU: 0xDC27, offset: 0xDC27, size: 0x8, addend: 0x0, symName: __ZNSt3__114__split_bufferI1ARNS_9allocatorIS1_EEE18__construct_at_endINS_13move_iteratorIPS1_EEEENS_9enable_ifIXsr31__has_forward_iterator_categoryIT_EE5valueEvE4typeESB_SB_, symObjAddr: 0x43B0, symBinAddr: 0x100006E00, symSize: 0x60 }
  - { offsetInCU: 0xDC73, offset: 0xDC73, size: 0x8, addend: 0x0, symName: __ZNSt3__113move_iteratorIP1AEC1B8ue170006ES2_, symObjAddr: 0x4410, symBinAddr: 0x100006E60, symSize: 0x34 }
  - { offsetInCU: 0xDCB4, offset: 0xDCB4, size: 0x8, addend: 0x0, symName: __ZNKSt3__111__move_loopINS_17_ClassicAlgPolicyEEclB8ue170006IP1AS5_S5_EENS_4pairIT_T1_EES7_T0_S8_, symObjAddr: 0x4580, symBinAddr: 0x100006FD0, symSize: 0x90 }
  - { offsetInCU: 0xDD1D, offset: 0xDD1D, size: 0x8, addend: 0x0, symName: __ZNSt3__114__split_bufferI1ARNS_9allocatorIS1_EEE28__construct_at_end_with_sizeINS_13move_iteratorIPS1_EEEEvT_m, symObjAddr: 0x4610, symBinAddr: 0x100007060, symSize: 0xE4 }
  - { offsetInCU: 0xDD82, offset: 0xDD82, size: 0x8, addend: 0x0, symName: __ZNSt3__114__split_bufferI1ARNS_9allocatorIS1_EEE21_ConstructTransactionC1B8ue170006EPPS1_m, symObjAddr: 0x4730, symBinAddr: 0x100007180, symSize: 0x3C }
  - { offsetInCU: 0xDDC7, offset: 0xDDC7, size: 0x8, addend: 0x0, symName: __ZNKSt3__113move_iteratorIP1AEdeB8ue170006Ev, symObjAddr: 0x476C, symBinAddr: 0x1000071BC, symSize: 0x18 }
  - { offsetInCU: 0xDDEC, offset: 0xDDEC, size: 0x8, addend: 0x0, symName: __ZNSt3__113move_iteratorIP1AEppB8ue170006Ev, symObjAddr: 0x4784, symBinAddr: 0x1000071D4, symSize: 0x20 }
  - { offsetInCU: 0xDE11, offset: 0xDE11, size: 0x8, addend: 0x0, symName: __ZNSt3__114__split_bufferI1ARNS_9allocatorIS1_EEE21_ConstructTransactionD1B8ue170006Ev, symObjAddr: 0x47A4, symBinAddr: 0x1000071F4, symSize: 0x2C }
  - { offsetInCU: 0xDE3A, offset: 0xDE3A, size: 0x8, addend: 0x0, symName: __ZNSt3__114__split_bufferI1ARNS_9allocatorIS1_EEE21_ConstructTransactionC2B8ue170006EPPS1_m, symObjAddr: 0x47D0, symBinAddr: 0x100007220, symSize: 0x44 }
  - { offsetInCU: 0xDE7F, offset: 0xDE7F, size: 0x8, addend: 0x0, symName: __ZNSt3__114__split_bufferI1ARNS_9allocatorIS1_EEE21_ConstructTransactionD2B8ue170006Ev, symObjAddr: 0x4814, symBinAddr: 0x100007264, symSize: 0x20 }
  - { offsetInCU: 0xDEA8, offset: 0xDEA8, size: 0x8, addend: 0x0, symName: __ZNKSt3__113move_iteratorIP1AE4baseB8ue170006Ev, symObjAddr: 0x48AC, symBinAddr: 0x1000072FC, symSize: 0x18 }
  - { offsetInCU: 0xDECD, offset: 0xDECD, size: 0x8, addend: 0x0, symName: __ZNSt3__113move_iteratorIP1AEC2B8ue170006ES2_, symObjAddr: 0x48C4, symBinAddr: 0x100007314, symSize: 0x20 }
  - { offsetInCU: 0xDF04, offset: 0xDF04, size: 0x8, addend: 0x0, symName: __ZNSt3__129_AllocatorDestroyRangeReverseINS_9allocatorI1AEEPS2_EC1B8ue170006ERS3_RS4_S7_, symObjAddr: 0x4A2C, symBinAddr: 0x10000747C, symSize: 0x44 }
  - { offsetInCU: 0xDF5A, offset: 0xDF5A, size: 0x8, addend: 0x0, symName: __ZNSt3__128__exception_guard_exceptionsINS_29_AllocatorDestroyRangeReverseINS_9allocatorI1AEEPS3_EEE10__completeB8ue170006Ev, symObjAddr: 0x4A70, symBinAddr: 0x1000074C0, symSize: 0x1C }
  - { offsetInCU: 0xDF7F, offset: 0xDF7F, size: 0x8, addend: 0x0, symName: __ZNSt3__128__exception_guard_exceptionsINS_29_AllocatorDestroyRangeReverseINS_9allocatorI1AEEPS3_EEED1B8ue170006Ev, symObjAddr: 0x4A8C, symBinAddr: 0x1000074DC, symSize: 0x2C }
  - { offsetInCU: 0xDFA8, offset: 0xDFA8, size: 0x8, addend: 0x0, symName: __ZNSt3__128__exception_guard_exceptionsINS_29_AllocatorDestroyRangeReverseINS_9allocatorI1AEEPS3_EEEC1B8ue170006ES6_, symObjAddr: 0x4AB8, symBinAddr: 0x100007508, symSize: 0x34 }
  - { offsetInCU: 0xDFE0, offset: 0xDFE0, size: 0x8, addend: 0x0, symName: __ZNSt3__128__exception_guard_exceptionsINS_29_AllocatorDestroyRangeReverseINS_9allocatorI1AEEPS3_EEEC2B8ue170006ES6_, symObjAddr: 0x4AEC, symBinAddr: 0x10000753C, symSize: 0x30 }
  - { offsetInCU: 0xE018, offset: 0xE018, size: 0x8, addend: 0x0, symName: __ZNSt3__129_AllocatorDestroyRangeReverseINS_9allocatorI1AEEPS2_EC2B8ue170006ERS3_RS4_S7_, symObjAddr: 0x4B1C, symBinAddr: 0x10000756C, symSize: 0x38 }
  - { offsetInCU: 0xE06E, offset: 0xE06E, size: 0x8, addend: 0x0, symName: __ZNSt3__128__exception_guard_exceptionsINS_29_AllocatorDestroyRangeReverseINS_9allocatorI1AEEPS3_EEED2B8ue170006Ev, symObjAddr: 0x4B54, symBinAddr: 0x1000075A4, symSize: 0x48 }
  - { offsetInCU: 0xE097, offset: 0xE097, size: 0x8, addend: 0x0, symName: __ZNKSt3__129_AllocatorDestroyRangeReverseINS_9allocatorI1AEEPS2_EclB8ue170006Ev, symObjAddr: 0x4B9C, symBinAddr: 0x1000075EC, symSize: 0x68 }
  - { offsetInCU: 0xE0BC, offset: 0xE0BC, size: 0x8, addend: 0x0, symName: __ZNSt3__111__wrap_iterIPK1AEC2B8ue170006IPS1_EERKNS0_IT_EEPNS_9enable_ifIXsr14is_convertibleIS7_S3_EE5valueEvE4typeE, symObjAddr: 0x4C74, symBinAddr: 0x1000076C4, symSize: 0x40 }
...
